(lp0
(lp1
S'KADIKOY Kadikoy'
p2
aI148
a(lp3
S'A2503H'
p4
aS'A2503J'
p5
aS'A2503A'
p6
aS'A2503C'
p7
aS'A2503B'
p8
aS'A2503E'
p9
aS'A2503D'
p10
aS'A2501C'
p11
aS'A2501F'
p12
aS'A2501D'
p13
aS'A2501I'
p14
aS'A2501H'
p15
aS'A2501B'
p16
aS'A2501A'
p17
aS'A2501E'
p18
aS'A1875A'
p19
aS'A1875B'
p20
aS'A1875C'
p21
aS'A1875D'
p22
aS'A1873B'
p23
aS'A1873C'
p24
aS'A1873A'
p25
aS'A1873D'
p26
aS'A1871E'
p27
aS'A1871B'
p28
aS'A1871C'
p29
aS'A2502I'
p30
aS'A2502E'
p31
aS'A1874B'
p32
aS'A2504A'
p33
aS'A2504F'
p34
aS'A2504H'
p35
aS'A2504I'
p36
aS'A2504J'
p37
aS'A2502J'
p38
aS'A2502H'
p39
aS'A2502B'
p40
aS'A2502A'
p41
aS'A2502F'
p42
aS'A2502D'
p43
aS'A2504C'
p44
aS'A1871D'
p45
aS'A1871A'
p46
aS'A2501G'
p47
aS'A1874C'
p48
aS'A1874A'
p49
aS'A1872A'
p50
aS'A1872C'
p51
aS'A1872B'
p52
aS'A1872E'
p53
aS'A1872D'
p54
aS'A2502G'
p55
aS'A1870C'
p56
aS'A1870B'
p57
aS'A1870A'
p58
aS'A1870G'
p59
aS'A1870F'
p60
aS'A1870E'
p61
aS'A1870I'
p62
aaa(lp63
S'ALTUNIZADE Uskudar'
p64
aI135
a(lp65
S'A0287B'
p66
aS'A0287C'
p67
aS'A0287A'
p68
aS'M0028B'
p69
aS'M0028A'
p70
aS'A0330G'
p71
aS'A0330F'
p72
aS'A0330E'
p73
aS'A0330D'
p74
aS'A0330K'
p75
aS'A0330J'
p76
aS'A0330N'
p77
aS'A0330M'
p78
aS'A0330S'
p79
aS'A0330R'
p80
aS'A0330C'
p81
aS'A0330A'
p82
aS'A0330L'
p83
aaa(lp84
S'TAKSIM Beyoglu'
p85
aI131
a(lp86
S'\xde0015F'
p87
aS'\xde0015J'
p88
aS'\xde0015H'
p89
aS'\xde0015L'
p90
aS'\xde0015B'
p91
aS'\xde0015C'
p92
aS'\xde0015A'
p93
aS'\xde0015G'
p94
aS'\xde0015D'
p95
aS'\xde0015E'
p96
aaa(lp97
S'TOPKAPI Fatih'
p98
aI123
a(lp99
S'T0048F'
p100
aS'T0048G'
p101
aS'T0048D'
p102
aS'T0048C'
p103
aS'T0048A'
p104
aS'T0048L'
p105
aS'T0048K'
p106
aS'T0048H'
p107
aS'T0048B'
p108
aaa(lp109
S'MUZE Fatih'
p110
aI108
a(lp111
S'T0059A'
p112
aS'T0059B'
p113
aaa(lp114
S'EMINONU Fatih'
p115
aI107
a(lp116
S'T0001S'
p117
aS'T0001R'
p118
aS'T0001U'
p119
aS'T0001I'
p120
aS'T0001H'
p121
aS'T0001K'
p122
aS'T0001J'
p123
aS'T0001M'
p124
aS'T0001L'
p125
aS'T0001O'
p126
aS'T0001N'
p127
aS'T0001A'
p128
aS'T0001C'
p129
aS'T0001B'
p130
aS'T0001E'
p131
aS'T0001D'
p132
aS'T0001G'
p133
aS'T0001T'
p134
aaa(lp135
S'KULELI Bakirkoy'
p136
aI95
a(lp137
S'\xdd0140B'
p138
aS'\xdd0140C'
p139
aS'\xdd0140A'
p140
aS'\xdd0009B'
p141
aS'\xdd0009A'
p142
aS'\xdd0009E'
p143
aaa(lp144
S'BEYAZIT Fatih'
p145
aI92
a(lp146
S'T0056A'
p147
aS'T0056C'
p148
aS'T0056B'
p149
aaa(lp150
S'ISTANBUL BELEDIYESI Fatih'
p151
aI87
a(lp152
S'T0058B'
p153
aS'T0058A'
p154
aaa(lp155
S'MEDICAL PARK Kadikoy'
p156
aI86
a(lp157
S'A1290B'
p158
aS'A1290A'
p159
aaa(lp160
S'ATAKENT Umraniye'
p161
aI86
a(lp162
S'A0503B'
p163
aS'A0503A'
p164
aS'A0303C'
p165
aS'A0303B'
p166
aS'A0508A'
p167
aS'A0303E'
p168
aS'A0303D'
p169
aS'A0303A'
p170
aaa(lp171
S'YENISAHRA Kadikoy'
p172
aI85
a(lp173
S'A0691A'
p174
aS'A0691B'
p175
aaa(lp176
S'GOZTEPE SAPAGI Kadikoy'
p177
aI85
a(lp178
S'A0690B'
p179
aS'A0690A'
p180
aaa(lp181
S'SEHITLIK Eyup'
p182
aI85
a(lp183
S'T0117A'
p184
aS'T0117C'
p185
aS'T0117B'
p186
aS'T0117D'
p187
aS'T0074C'
p188
aS'T0074B'
p189
aaa(lp190
S'I.U. AVCILAR KAMPUSU Avcilar'
p191
aI84
a(lp192
S'\xdd0245A'
p193
aS'\xdd0243F'
p194
aS'\xdd0243G'
p195
aS'\xdd0243D'
p196
aS'\xdd0243E'
p197
aS'\xdd0243B'
p198
aS'\xdd0243A'
p199
aS'\xdd0243I'
p200
aS'\xdd0243C'
p201
aS'\xdd0245B'
p202
aaa(lp203
S'SISLI MERKEZ Sisli'
p204
aI84
a(lp205
S'\xde0006D'
p206
aS'\xde0006B'
p207
aS'\xde0006A'
p208
aaa(lp209
S'YUSUFPASA Fatih'
p210
aI83
a(lp211
S'T0054A'
p212
aS'T0054B'
p213
aaa(lp214
S'HASEKI Fatih'
p215
aI82
a(lp216
S'T0038A'
p217
aS'T0038C'
p218
aS'T0038B'
p219
aS'T0038D'
p220
aaa(lp221
S'FINDIKZADE Fatih'
p222
aI80
a(lp223
S'T0053C'
p224
aS'T0033A'
p225
aS'T0053B'
p226
aS'T0053A'
p227
aaa(lp228
S'YENIKAPI Fatih'
p229
aI80
a(lp230
S'T0008B'
p231
aS'T0008C'
p232
aS'T0008A'
p233
aS'T0008G'
p234
aS'T0008D'
p235
aS'T0008E'
p236
aaa(lp237
S'CAPA Fatih'
p238
aI80
a(lp239
S'T0052A'
p240
aS'T0052B'
p241
aaa(lp242
S'EDIRNEKAPI Fatih'
p243
aI79
a(lp244
S'T0068G'
p245
aS'T0068A'
p246
aS'T0068B'
p247
aS'T0068C'
p248
aS'T0068J'
p249
aaa(lp250
S'PAZARTEKKE Fatih'
p251
aI79
a(lp252
S'T0050B'
p253
aS'T0050A'
p254
aaa(lp255
S'COBANCESME Bakirkoy'
p256
aI79
a(lp257
S'\xdd0139B'
p258
aS'\xdd0139A'
p259
aaa(lp260
S'FABRIKALAR Sisli'
p261
aI77
a(lp262
S'L0276A'
p263
aS'L0276B'
p264
aS'L0447A'
p265
aS'L0138B'
p266
aS'L0138C'
p267
aS'L0138A'
p268
aaa(lp269
S'PERTEVNIYAL V.SULTAN Fatih'
p270
aI76
a(lp271
S'T0057B'
p272
aS'T0057A'
p273
aS'T0057F'
p274
aaa(lp275
S'ACIBADEM KOPRUSU Kadikoy'
p276
aI75
a(lp277
S'A0686A'
p278
aS'A0686B'
p279
aaa(lp280
S'METROBUS UZUNCAYIR Kadikoy'
p281
aI75
a(lp282
S'A0688B'
p283
aS'A0688A'
p284
aaa(lp285
S'CARSI Kadikoy'
p286
aI74
a(lp287
S'A0587B'
p288
aS'A0587A'
p289
aaa(lp290
S'SIRINEVLER Bakirkoy'
p291
aI72
a(lp292
S'\xdd0008A'
p293
aS'\xdd0008B'
p294
aS'\xdd1181A'
p295
aS'\xdd1181B'
p296
aaa(lp297
S'KOSUYOLU KOPRUSU Kadikoy'
p298
aI72
a(lp299
S'A0683B'
p300
aS'A0683C'
p301
aS'A0683A'
p302
aaa(lp303
S'DOGUS UNIVERSITESI Kadikoy'
p304
aI72
a(lp305
S'A0687B'
p306
aS'A0687A'
p307
aaa(lp308
S'YUZBESEVLER Kadikoy'
p309
aI72
a(lp310
S'A0692A'
p311
aS'A0692B'
p312
aaa(lp313
S'OMERHAYYAM Beyoglu'
p314
aI71
a(lp315
S'\xde0028B'
p316
aS'\xde0028A'
p317
aaa(lp318
S'TARLABASI Beyoglu'
p319
aI71
a(lp320
S'\xde0029A'
p321
aS'\xde0029B'
p322
aaa(lp323
S'TEPEBASI Beyoglu'
p324
aI71
a(lp325
S'\xde0027B'
p326
aS'\xde0027A'
p327
aaa.